; Function Attrs: mustprogress nofree norecurse nosync nounwind willreturn memory(none) uwtable
define noundef zeroext i1 @_ZN8facebook5velox4util16isValidDayOfYearEii(i32 noundef %year, i32 noundef %dayOfYear) local_unnamed_addr #0 {
entry:
  %0 = add i32 %year, -292278995
  %or.cond = icmp ult i32 %0, -584554050
  %cmp2 = icmp slt i32 %dayOfYear, 1
  %or.cond4 = or i1 %or.cond, %cmp2
  br i1 %or.cond4, label %return, label %lor.lhs.false3

lor.lhs.false3:                                   ; preds = %entry
  %1 = and i32 %year, 3
  %cmp.i = icmp eq i32 %1, 0
  br i1 %cmp.i, label %land.rhs.i, label %_ZN8facebook5velox4util10isLeapYearEi.exit.thread5

land.rhs.i:                                       ; preds = %lor.lhs.false3
  %rem1.i = srem i32 %year, 100
  %cmp2.not.i = icmp ne i32 %rem1.i, 0
  %rem3.i = srem i32 %year, 400
  %cmp4.i = icmp eq i32 %rem3.i, 0
  %or.cond6 = or i1 %cmp2.not.i, %cmp4.i
  %spec.select7 = select i1 %or.cond6, i32 366, i32 365
  br label %_ZN8facebook5velox4util10isLeapYearEi.exit.thread5

_ZN8facebook5velox4util10isLeapYearEi.exit.thread5: ; preds = %land.rhs.i, %lor.lhs.false3
  %2 = phi i32 [ 365, %lor.lhs.false3 ], [ %spec.select7, %land.rhs.i ]
  %cmp4 = icmp samesign ule i32 %dayOfYear, %2
  br label %return

return:                                           ; preds = %_ZN8facebook5velox4util10isLeapYearEi.exit.thread5, %entry
  %retval.0 = phi i1 [ false, %entry ], [ %cmp4, %_ZN8facebook5velox4util10isLeapYearEi.exit.thread5 ]
  ret i1 %retval.0
}